target datalayout = "e-m:e-p270:32:32-p271:32:32-p272:64:64-i64:64-i128:128-f80:128-n8:16:32:64-S128"
target triple = "x86_64-unknown-linux-gnu"

%"class.QuantLib::detail::D0Interpolator" = type { double, double, double, double, double, double, double, double, %"class.std::vector", %"class.std::vector", %"class.std::vector", %"class.std::vector", %"class.std::vector" }
%"class.std::vector" = type { %"struct.std::_Vector_base" }
%"struct.std::_Vector_base" = type { %"struct.std::_Vector_base<double, std::allocator<double>>::_Vector_impl" }
%"struct.std::_Vector_base<double, std::allocator<double>>::_Vector_impl" = type { %"struct.std::_Vector_base<double, std::allocator<double>>::_Vector_impl_data" }
%"struct.std::_Vector_base<double, std::allocator<double>>::_Vector_impl_data" = type { ptr, ptr, ptr }
%"class.boost::math::policies::policy" = type { i8 }

; Function Attrs: inlinehint mustprogress uwtable
define linkonce_odr noundef double @_ZN5boost4math11gamma_q_invIddNS0_8policies6policyINS2_14default_policyES4_S4_S4_S4_S4_S4_S4_S4_S4_S4_S4_S4_EEEENS0_5tools12promote_argsIT_T0_ffffE4typeES8_S9_RKT1_(double noundef %a, double noundef %p, ptr noundef nonnull align 1 dereferenceable(1) %pol) #3 comdat {
entry:
  %a.addr = alloca double, align 8
  %p.addr = alloca double, align 8
  %pol.addr = alloca ptr, align 8
  store double %a, ptr %a.addr, align 8, !tbaa !7
  store double %p, ptr %p.addr, align 8, !tbaa !7
  store ptr %pol, ptr %pol.addr, align 8, !tbaa !3
  %0 = load double, ptr %a.addr, align 8, !tbaa !7
  %1 = load double, ptr %p.addr, align 8, !tbaa !7
  %2 = load ptr, ptr %pol.addr, align 8, !tbaa !3
  %call = call noundef double @_ZN5boost4math6detail15gamma_q_inv_impIdNS0_8policies6policyINS3_14default_policyES5_S5_S5_S5_S5_S5_S5_S5_S5_S5_S5_S5_EEEET_S7_S7_RKT0_(double noundef %0, double noundef %1, ptr noundef nonnull align 1 dereferenceable(1) %2)
  ret double %call
}

; Function Attrs: inlinehint mustprogress uwtable
define linkonce_odr noundef double @_ZN5boost4math11gamma_q_invIddEENS0_5tools12promote_argsIT_T0_ffffE4typeES4_S5_(double noundef %a, double noundef %p) #3 comdat {
entry:
  %a.addr = alloca double, align 8
  %p.addr = alloca double, align 8
  %ref.tmp = alloca %"class.boost::math::policies::policy", align 1
  store double %a, ptr %a.addr, align 8, !tbaa !7
  store double %p, ptr %p.addr, align 8, !tbaa !7
  %0 = load double, ptr %a.addr, align 8, !tbaa !7
  %1 = load double, ptr %p.addr, align 8, !tbaa !7
  call void @llvm.lifetime.start.p0(i64 1, ptr %ref.tmp) #24
  %call = call noundef double @_ZN5boost4math11gamma_q_invIddNS0_8policies6policyINS2_14default_policyES4_S4_S4_S4_S4_S4_S4_S4_S4_S4_S4_S4_EEEENS0_5tools12promote_argsIT_T0_ffffE4typeES8_S9_RKT1_(double noundef %0, double noundef %1, ptr noundef nonnull align 1 dereferenceable(1) %ref.tmp)
  call void @llvm.lifetime.end.p0(i64 1, ptr %ref.tmp) #24
  ret double %call
}

; Function Attrs: mustprogress uwtable
define noundef double @_ZNK8QuantLib6detail14D0Interpolator3phiEd(ptr noundef nonnull align 8 dereferenceable(184) %this, double noundef %d0) #0 align 2 {
entry:
  %retval = alloca double, align 8
  %this.addr = alloca ptr, align 8
  %d0.addr = alloca double, align 8
  store ptr %this, ptr %this.addr, align 8, !tbaa !3
  store double %d0, ptr %d0.addr, align 8, !tbaa !7
  %this1 = load ptr, ptr %this.addr, align 8
  %0 = load double, ptr %d0.addr, align 8, !tbaa !7
  %cmp = fcmp olt double %0, 0x3D06849B86A12B9B
  br i1 %cmp, label %if.then, label %if.end

if.then:                                          ; preds = %entry
  %expiryTime_ = getelementptr inbounds nuw %"class.QuantLib::detail::D0Interpolator", ptr %this1, i32 0, i32 1
  %1 = load double, ptr %expiryTime_, align 8, !tbaa !35
  %mul = fmul double 1.245870e+02, %1
  store double %mul, ptr %retval, align 8
  br label %return

if.end:                                           ; preds = %entry
  %gamma_ = getelementptr inbounds nuw %"class.QuantLib::detail::D0Interpolator", ptr %this1, i32 0, i32 6
  %2 = load double, ptr %gamma_, align 8, !tbaa !72
  %3 = load double, ptr %d0.addr, align 8, !tbaa !7
  %call = call noundef double @_ZN5boost4math11gamma_q_invIddEENS0_5tools12promote_argsIT_T0_ffffE4typeES4_S5_(double noundef %2, double noundef %3)
  %expiryTime_2 = getelementptr inbounds nuw %"class.QuantLib::detail::D0Interpolator", ptr %this1, i32 0, i32 1
  %4 = load double, ptr %expiryTime_2, align 8, !tbaa !35
  %mul3 = fmul double %call, %4
  store double %mul3, ptr %retval, align 8
  br label %return

return:                                           ; preds = %if.end, %if.then
  %5 = load double, ptr %retval, align 8
  ret double %5
}