; Function Attrs: mustprogress uwtable
define noundef double @_ZNK8QuantLib6detail14D0Interpolator3phiEd(ptr nocapture noundef nonnull readonly align 8 dereferenceable(184) %this, double noundef %d0) local_unnamed_addr #0 align 2 {
entry:
  %ref.tmp.i = alloca %"class.boost::math::policies::policy", align 1
  %cmp = fcmp olt double %d0, 0x3D06849B86A12B9B
  br i1 %cmp, label %if.then, label %if.end

if.then:                                          ; preds = %entry
  %expiryTime_ = getelementptr inbounds nuw i8, ptr %this, i64 8
  %0 = load double, ptr %expiryTime_, align 8, !tbaa !72
  %mul = fmul double %0, 1.245870e+02
  br label %return

if.end:                                           ; preds = %entry
  %gamma_ = getelementptr inbounds nuw i8, ptr %this, i64 48
  %1 = load double, ptr %gamma_, align 8, !tbaa !71
  call void @llvm.lifetime.start.p0(i64 1, ptr nonnull %ref.tmp.i) #32
  %call.i.i = call noundef double @_ZN5boost4math6detail15gamma_q_inv_impIdNS0_8policies6policyINS3_14default_policyES5_S5_S5_S5_S5_S5_S5_S5_S5_S5_S5_S5_EEEET_S7_S7_RKT0_(double noundef %1, double noundef %d0, ptr noundef nonnull align 1 dereferenceable(1) %ref.tmp.i)
  call void @llvm.lifetime.end.p0(i64 1, ptr nonnull %ref.tmp.i) #32
  %expiryTime_2 = getelementptr inbounds nuw i8, ptr %this, i64 8
  %2 = load double, ptr %expiryTime_2, align 8, !tbaa !72
  %mul3 = fmul double %call.i.i, %2
  br label %return

return:                                           ; preds = %if.end, %if.then
  %retval.0 = phi double [ %mul, %if.then ], [ %mul3, %if.end ]
  ret double %retval.0
}